target datalayout = "e-m:e-p270:32:32-p271:32:32-p272:64:64-i64:64-i128:128-f80:128-n8:16:32:64-S128"
target triple = "x86_64-pc-linux-gnu"

%union.ufmt_args = type { i64 }
%struct.u_printf_spec_info = type { i32, i32, i16, i16, i16, i8, i8, i8, i8, i8, i8, i8, i8, i8 }
%struct.u_printf_stream_handler = type { ptr, ptr }

; Function Attrs: mustprogress uwtable
define internal noundef i32 @_ZL22u_printf_octal_handlerPK23u_printf_stream_handlerPvP13ULocaleBundlePK18u_printf_spec_infoPK9ufmt_args(ptr noundef %0, ptr noundef %1, ptr noundef %2, ptr noundef %3, ptr noundef %4) #0 {
  %6 = alloca ptr, align 8
  %7 = alloca ptr, align 8
  %8 = alloca ptr, align 8
  %9 = alloca ptr, align 8
  %10 = alloca ptr, align 8
  %11 = alloca i64, align 8
  %12 = alloca [1024 x i16], align 16
  %13 = alloca i32, align 4
  store ptr %0, ptr %6, align 8, !tbaa !3
  store ptr %1, ptr %7, align 8, !tbaa !10
  store ptr %2, ptr %8, align 8, !tbaa !13
  store ptr %3, ptr %9, align 8, !tbaa !19
  store ptr %4, ptr %10, align 8, !tbaa !21
  call void @llvm.lifetime.start.p0(i64 8, ptr %11) #9
  %14 = load ptr, ptr %10, align 8, !tbaa !21
  %15 = getelementptr inbounds %union.ufmt_args, ptr %14, i64 0
  %16 = load i64, ptr %15, align 8, !tbaa !69
  store i64 %16, ptr %11, align 8, !tbaa !70
  call void @llvm.lifetime.start.p0(i64 2048, ptr %12) #9
  call void @llvm.lifetime.start.p0(i64 4, ptr %13) #9
  store i32 1024, ptr %13, align 4, !tbaa !36
  %17 = load ptr, ptr %9, align 8, !tbaa !19
  %18 = getelementptr inbounds nuw %struct.u_printf_spec_info, ptr %17, i32 0, i32 11
  %19 = load i8, ptr %18, align 4, !tbaa !56
  %20 = icmp ne i8 %19, 0
  br i1 %20, label %21, label %24

21:                                               ; preds = %5
  %22 = load i64, ptr %11, align 8, !tbaa !70
  %23 = and i64 %22, 65535
  store i64 %23, ptr %11, align 8, !tbaa !70
  br label %33

24:                                               ; preds = %5
  %25 = load ptr, ptr %9, align 8, !tbaa !19
  %26 = getelementptr inbounds nuw %struct.u_printf_spec_info, ptr %25, i32 0, i32 13
  %27 = load i8, ptr %26, align 2, !tbaa !57
  %28 = icmp ne i8 %27, 0
  br i1 %28, label %32, label %29

29:                                               ; preds = %24
  %30 = load i64, ptr %11, align 8, !tbaa !70
  %31 = and i64 %30, 4294967295
  store i64 %31, ptr %11, align 8, !tbaa !70
  br label %32

32:                                               ; preds = %29, %24
  br label %33

33:                                               ; preds = %32, %21
  %34 = getelementptr inbounds [1024 x i16], ptr %12, i64 0, i64 0
  %35 = load i64, ptr %11, align 8, !tbaa !70
  %36 = load ptr, ptr %9, align 8, !tbaa !19
  %37 = getelementptr inbounds nuw %struct.u_printf_spec_info, ptr %36, i32 0, i32 0
  %38 = load i32, ptr %37, align 4, !tbaa !42
  %39 = icmp eq i32 %38, -1
  br i1 %39, label %40, label %49

40:                                               ; preds = %33
  %41 = load ptr, ptr %9, align 8, !tbaa !19
  %42 = getelementptr inbounds nuw %struct.u_printf_spec_info, ptr %41, i32 0, i32 9
  %43 = load i8, ptr %42, align 2, !tbaa !50
  %44 = icmp ne i8 %43, 0
  br i1 %44, label %45, label %49

45:                                               ; preds = %40
  %46 = load ptr, ptr %9, align 8, !tbaa !19
  %47 = getelementptr inbounds nuw %struct.u_printf_spec_info, ptr %46, i32 0, i32 1
  %48 = load i32, ptr %47, align 4, !tbaa !43
  br label %53

49:                                               ; preds = %40, %33
  %50 = load ptr, ptr %9, align 8, !tbaa !19
  %51 = getelementptr inbounds nuw %struct.u_printf_spec_info, ptr %50, i32 0, i32 0
  %52 = load i32, ptr %51, align 4, !tbaa !42
  br label %53

53:                                               ; preds = %49, %45
  %54 = phi i32 [ %48, %45 ], [ %52, %49 ]
  call void @_Z13ufmt_64tou_77PDsPimhai(ptr noundef %34, ptr noundef %13, i64 noundef %35, i8 noundef zeroext 8, i8 noundef signext 0, i32 noundef %54)
  %55 = load ptr, ptr %9, align 8, !tbaa !19
  %56 = getelementptr inbounds nuw %struct.u_printf_spec_info, ptr %55, i32 0, i32 5
  %57 = load i8, ptr %56, align 2, !tbaa !49
  %58 = icmp ne i8 %57, 0
  br i1 %58, label %59, label %77

59:                                               ; preds = %53
  %60 = getelementptr inbounds [1024 x i16], ptr %12, i64 0, i64 0
  %61 = load i16, ptr %60, align 16, !tbaa !30
  %62 = zext i16 %61 to i32
  %63 = icmp ne i32 %62, 48
  br i1 %63, label %64, label %77

64:                                               ; preds = %59
  %65 = load i32, ptr %13, align 4, !tbaa !36
  %66 = icmp slt i32 %65, 1023
  br i1 %66, label %67, label %77

67:                                               ; preds = %64
  %68 = getelementptr inbounds [1024 x i16], ptr %12, i64 0, i64 0
  %69 = getelementptr inbounds i16, ptr %68, i64 1
  %70 = getelementptr inbounds [1024 x i16], ptr %12, i64 0, i64 0
  %71 = load i32, ptr %13, align 4, !tbaa !36
  %72 = sext i32 %71 to i64
  %73 = mul i64 %72, 2
  call void @llvm.memmove.p0.p0.i64(ptr align 2 %69, ptr align 16 %70, i64 %73, i1 false)
  %74 = getelementptr inbounds [1024 x i16], ptr %12, i64 0, i64 0
  store i16 48, ptr %74, align 16, !tbaa !30
  %75 = load i32, ptr %13, align 4, !tbaa !36
  %76 = add nsw i32 %75, 1
  store i32 %76, ptr %13, align 4, !tbaa !36
  br label %77

77:                                               ; preds = %67, %64, %59, %53
  %78 = load ptr, ptr %6, align 8, !tbaa !3
  %79 = getelementptr inbounds nuw %struct.u_printf_stream_handler, ptr %78, i32 0, i32 1
  %80 = load ptr, ptr %79, align 8, !tbaa !85
  %81 = load ptr, ptr %7, align 8, !tbaa !10
  %82 = load ptr, ptr %9, align 8, !tbaa !19
  %83 = getelementptr inbounds [1024 x i16], ptr %12, i64 0, i64 0
  %84 = load i32, ptr %13, align 4, !tbaa !36
  %85 = call noundef i32 %80(ptr noundef %81, ptr noundef %82, ptr noundef %83, i32 noundef %84)
  call void @llvm.lifetime.end.p0(i64 4, ptr %13) #9
  call void @llvm.lifetime.end.p0(i64 2048, ptr %12) #9
  call void @llvm.lifetime.end.p0(i64 8, ptr %11) #9
  ret i32 %85
}