; Function Attrs: mustprogress uwtable
define internal noundef i32 @_ZL22u_printf_octal_handlerPK23u_printf_stream_handlerPvP13ULocaleBundlePK18u_printf_spec_infoPK9ufmt_args(ptr noundef readonly captures(none) %0, ptr noundef %1, ptr readnone captures(none) %2, ptr noundef %3, ptr noundef readonly captures(none) %4) #0 {
  %6 = alloca [1024 x i16], align 16
  %7 = alloca i32, align 4
  %8 = load i64, ptr %4, align 8, !tbaa !20
  call void @llvm.lifetime.start.p0(i64 2048, ptr nonnull %6) #9
  call void @llvm.lifetime.start.p0(i64 4, ptr nonnull %7) #9
  store i32 1024, ptr %7, align 4, !tbaa !30
  %9 = getelementptr inbounds nuw i8, ptr %3, i64 20
  %10 = load i8, ptr %9, align 4, !tbaa !56
  %.not = icmp eq i8 %10, 0
  br i1 %.not, label %13, label %11

11:                                               ; preds = %5
  %12 = and i64 %8, 65535
  br label %17

13:                                               ; preds = %5
  %14 = getelementptr inbounds nuw i8, ptr %3, i64 22
  %15 = load i8, ptr %14, align 2, !tbaa !57
  %.not19 = icmp eq i8 %15, 0
  %16 = and i64 %8, 4294967295
  %spec.select = select i1 %.not19, i64 %16, i64 %8
  br label %17

17:                                               ; preds = %13, %11
  %.0 = phi i64 [ %12, %11 ], [ %spec.select, %13 ]
  %18 = load i32, ptr %3, align 4, !tbaa !42
  %19 = icmp eq i32 %18, -1
  br i1 %19, label %20, label %23

20:                                               ; preds = %17
  %21 = getelementptr inbounds nuw i8, ptr %3, i64 18
  %22 = load i8, ptr %21, align 2, !tbaa !50
  %.not20 = icmp eq i8 %22, 0
  %spec.select21.idx = select i1 %.not20, i64 0, i64 4
  %spec.select21 = getelementptr inbounds nuw i8, ptr %3, i64 %spec.select21.idx
  %.pre = load i32, ptr %spec.select21, align 4, !tbaa !30
  br label %23

23:                                               ; preds = %20, %17
  %24 = phi i32 [ %18, %17 ], [ %.pre, %20 ]
  call void @_Z13ufmt_64tou_77PDsPimhai(ptr noundef nonnull %6, ptr noundef nonnull %7, i64 noundef %.0, i8 noundef zeroext 8, i8 noundef signext 0, i32 noundef %24)
  %25 = getelementptr inbounds nuw i8, ptr %3, i64 14
  %26 = load i8, ptr %25, align 2, !tbaa !49
  %27 = icmp ne i8 %26, 0
  %28 = load i16, ptr %6, align 16
  %29 = icmp ne i16 %28, 48
  %or.cond = select i1 %27, i1 %29, i1 false
  %30 = load i32, ptr %7, align 4
  %31 = icmp slt i32 %30, 1023
  %or.cond5 = select i1 %or.cond, i1 %31, i1 false
  br i1 %or.cond5, label %32, label %37

32:                                               ; preds = %23
  %33 = getelementptr inbounds nuw i8, ptr %6, i64 2
  %34 = sext i32 %30 to i64
  %35 = shl nsw i64 %34, 1
  call void @llvm.memmove.p0.p0.i64(ptr nonnull align 2 %33, ptr nonnull align 16 %6, i64 %35, i1 false)
  store i16 48, ptr %6, align 16, !tbaa !12
  %36 = add nsw i32 %30, 1
  store i32 %36, ptr %7, align 4, !tbaa !30
  br label %37

37:                                               ; preds = %32, %23
  %38 = phi i32 [ %36, %32 ], [ %30, %23 ]
  %39 = getelementptr inbounds nuw i8, ptr %0, i64 8
  %40 = load ptr, ptr %39, align 8, !tbaa !64
  %41 = call noundef i32 %40(ptr noundef %1, ptr noundef nonnull %3, ptr noundef nonnull %6, i32 noundef %38)
  call void @llvm.lifetime.end.p0(i64 4, ptr nonnull %7) #9
  call void @llvm.lifetime.end.p0(i64 2048, ptr nonnull %6) #9
  ret i32 %41
}